; Function Attrs: mustprogress nounwind uwtable
define dso_local noundef zeroext i1 @_ZN4llvm7remarks14RemarkStreamer13matchesFilterENS_9StringRefE(ptr noundef nonnull align 8 dereferenceable(72) %0, ptr %1, i64 %2) local_unnamed_addr #0 align 2 {
  %4 = getelementptr inbounds nuw i8, ptr %0, i64 16
  %5 = load i8, ptr %4, align 8
  %6 = trunc i8 %5 to i1
  br i1 %6, label %7, label %9

7:                                                ; preds = %3
  %8 = tail call noundef zeroext i1 @_ZNK4llvm5Regex5matchENS_9StringRefEPNS_15SmallVectorImplIS1_EEPNSt7__cxx1112basic_stringIcSt11char_traitsIcESaIcEEE(ptr noundef nonnull align 8 dereferenceable(12) %0, ptr %1, i64 %2, ptr noundef null, ptr noundef null) #14
  br label %9

9:                                                ; preds = %3, %7
  %.0 = phi i1 [ %8, %7 ], [ true, %3 ]
  ret i1 %.0
}